target datalayout = "e-m:e-p270:32:32-p271:32:32-p272:64:64-i64:64-i128:128-f80:128-n8:16:32:64-S128"
target triple = "x86_64-pc-linux-gnu"

%struct.quic_terminate_cause_st = type { i64, i64, ptr, i64, i8 }

; Function Attrs: nounwind uwtable
define void @ossl_quic_channel_on_stateless_reset(ptr noundef %0) #0 {
  %2 = alloca ptr, align 8
  %3 = alloca %struct.quic_terminate_cause_st, align 8
  store ptr %0, ptr %2, align 8, !tbaa !3
  call void @llvm.lifetime.start.p0(i64 40, ptr %3) #9
  call void @llvm.memset.p0.i64(ptr align 8 %3, i8 0, i64 40, i1 false)
  %4 = getelementptr inbounds nuw %struct.quic_terminate_cause_st, ptr %3, i32 0, i32 0
  store i64 0, ptr %4, align 8, !tbaa !228
  %5 = getelementptr inbounds nuw %struct.quic_terminate_cause_st, ptr %3, i32 0, i32 4
  %6 = load i8, ptr %5, align 8
  %7 = and i8 %6, -3
  %8 = or i8 %7, 2
  store i8 %8, ptr %5, align 8
  %9 = load ptr, ptr %2, align 8, !tbaa !3
  call void @ch_start_terminating(ptr noundef %9, ptr noundef %3, i32 noundef 0)
  call void @llvm.lifetime.end.p0(i64 40, ptr %3) #9
  ret void
}