; Function Attrs: nounwind uwtable
define void @ossl_quic_channel_on_stateless_reset(ptr noundef %0) local_unnamed_addr #0 {
  %2 = alloca %struct.quic_terminate_cause_st, align 8
  call void @llvm.lifetime.start.p0(i64 40, ptr nonnull %2) #15
  %3 = getelementptr inbounds nuw i8, ptr %2, i64 32
  call void @llvm.memset.p0.i64(ptr noundef nonnull align 8 dereferenceable(40) %2, i8 0, i64 40, i1 false)
  store i8 2, ptr %3, align 8
  call fastcc void @ch_start_terminating(ptr noundef %0, ptr noundef %2, i32 noundef 0)
  call void @llvm.lifetime.end.p0(i64 40, ptr nonnull %2) #15
  ret void
}